; Function Attrs: nounwind uwtable
define void @ossl_quic_port_drop_incoming(ptr noundef captures(none) %0) local_unnamed_addr #0 {
  %2 = getelementptr inbounds nuw i8, ptr %0, i64 96
  %.val.i16 = load ptr, ptr %2, align 8, !tbaa !186
  %3 = icmp eq ptr %.val.i16, null
  br i1 %3, label %._crit_edge, label %.lr.ph

.lr.ph:                                           ; preds = %1
  %4 = getelementptr inbounds nuw i8, ptr %0, i64 104
  %5 = getelementptr inbounds nuw i8, ptr %0, i64 112
  br label %6

6:                                                ; preds = %.lr.ph, %36
  %.val.i17 = phi ptr [ %.val.i16, %.lr.ph ], [ %.val.i, %36 ]
  %7 = getelementptr inbounds nuw i8, ptr %.val.i17, i64 24
  %8 = load ptr, ptr %7, align 8, !tbaa !187
  store ptr %8, ptr %2, align 8, !tbaa !186
  %9 = load ptr, ptr %4, align 8, !tbaa !188
  %10 = icmp eq ptr %9, %.val.i17
  %11 = getelementptr inbounds nuw i8, ptr %.val.i17, i64 32
  %12 = load ptr, ptr %11, align 8, !tbaa !189
  br i1 %10, label %13, label %._crit_edge.i.i

13:                                               ; preds = %6
  store ptr %12, ptr %4, align 8, !tbaa !188
  br label %._crit_edge.i.i

._crit_edge.i.i:                                  ; preds = %13, %6
  %.not.i.i = icmp eq ptr %12, null
  br i1 %.not.i.i, label %16, label %14

14:                                               ; preds = %._crit_edge.i.i
  %15 = getelementptr inbounds nuw i8, ptr %12, i64 24
  store ptr %8, ptr %15, align 8, !tbaa !187
  br label %16

16:                                               ; preds = %14, %._crit_edge.i.i
  %.not18.i.i = icmp eq ptr %8, null
  br i1 %.not18.i.i, label %19, label %17

17:                                               ; preds = %16
  %18 = getelementptr inbounds nuw i8, ptr %8, i64 32
  store ptr %12, ptr %18, align 8, !tbaa !189
  br label %19

19:                                               ; preds = %17, %16
  %20 = load i64, ptr %5, align 8, !tbaa !57
  %21 = add i64 %20, -1
  store i64 %21, ptr %5, align 8, !tbaa !57
  tail call void @llvm.memset.p0.i64(ptr noundef nonnull align 8 dereferenceable(16) %7, i8 0, i64 16, i1 false)
  %22 = tail call ptr @ossl_quic_channel_get0_tls(ptr noundef nonnull %.val.i17) #11
  %23 = icmp ne ptr %22, null
  tail call void @llvm.assume(i1 %23)
  %24 = load i32, ptr %22, align 8, !tbaa !98
  %25 = icmp eq i32 %24, 0
  br i1 %25, label %30, label %26

26:                                               ; preds = %19
  %27 = and i32 %24, 128
  %28 = icmp ne i32 %27, 0
  tail call void @llvm.assume(i1 %28)
  %29 = tail call ptr @ossl_quic_obj_get0_handshake_layer(ptr noundef nonnull %22) #11
  br label %30

30:                                               ; preds = %19, %26
  %31 = phi ptr [ %29, %26 ], [ %22, %19 ]
  %32 = getelementptr inbounds nuw i8, ptr %31, i64 64
  %33 = load ptr, ptr %32, align 8, !tbaa !190
  %34 = icmp eq ptr %33, %22
  br i1 %34, label %35, label %36

35:                                               ; preds = %30
  tail call void @ossl_quic_channel_free(ptr noundef nonnull %.val.i17) #11
  br label %36

36:                                               ; preds = %30, %35
  %.sink = phi ptr [ %22, %35 ], [ %33, %30 ]
  tail call void @SSL_free(ptr noundef %.sink) #11
  %.val.i = load ptr, ptr %2, align 8, !tbaa !186
  %37 = icmp eq ptr %.val.i, null
  br i1 %37, label %._crit_edge, label %6

._crit_edge:                                      ; preds = %36, %1
  ret void
}